; Function Attrs: mustprogress nounwind uwtable
define noundef i32 @LGBM_FastConfigFree(ptr noundef %0) local_unnamed_addr #19 personality ptr @__gxx_personality_v0 {
  %2 = icmp eq ptr %0, null
  br i1 %2, label %15, label %3

3:                                                ; preds = %1
  %4 = getelementptr inbounds nuw i8, ptr %0, i64 1720
  tail call void @_ZNSt18condition_variableD1Ev(ptr noundef nonnull align 8 dereferenceable(48) %4) #26
  %5 = getelementptr inbounds nuw i8, ptr %0, i64 1632
  %6 = getelementptr inbounds nuw i8, ptr %0, i64 1672
  %7 = load ptr, ptr %6, align 8, !tbaa !840
  %.not.i.i.i = icmp eq ptr %7, null
  br i1 %.not.i.i.i, label %_ZNSt10unique_ptrIN8LightGBM9PredictorESt14default_deleteIS1_EED2Ev.exit.i.i, label %_ZNKSt14default_deleteIN8LightGBM9PredictorEEclEPS1_.exit.i.i.i

_ZNKSt14default_deleteIN8LightGBM9PredictorEEclEPS1_.exit.i.i.i: ; preds = %3
  tail call void @_ZN8LightGBM9PredictorD2Ev(ptr noundef nonnull align 8 dereferenceable(144) %7) #26
  tail call void @_ZdlPv(ptr noundef nonnull %7) #39
  br label %_ZNSt10unique_ptrIN8LightGBM9PredictorESt14default_deleteIS1_EED2Ev.exit.i.i

_ZNSt10unique_ptrIN8LightGBM9PredictorESt14default_deleteIS1_EED2Ev.exit.i.i: ; preds = %_ZNKSt14default_deleteIN8LightGBM9PredictorEEclEPS1_.exit.i.i.i, %3
  store ptr null, ptr %6, align 8, !tbaa !840
  %8 = getelementptr inbounds nuw i8, ptr %0, i64 1648
  %9 = load ptr, ptr %8, align 8, !tbaa !200
  %.not.i1.i.i = icmp eq ptr %9, null
  br i1 %.not.i1.i.i, label %_ZN8LightGBM18SingleRowPredictorD2Ev.exit, label %10

10:                                               ; preds = %_ZNSt10unique_ptrIN8LightGBM9PredictorESt14default_deleteIS1_EED2Ev.exit.i.i
  %11 = invoke noundef zeroext i1 %9(ptr noundef nonnull align 8 dereferenceable(72) %5, ptr noundef nonnull align 8 dereferenceable(72) %5, i32 noundef 3)
          to label %_ZN8LightGBM18SingleRowPredictorD2Ev.exit unwind label %12

12:                                               ; preds = %10
  %13 = landingpad { ptr, i32 }
          catch ptr null
  %14 = extractvalue { ptr, i32 } %13, 0
  tail call void @__clang_call_terminate(ptr %14) #40
  unreachable

_ZN8LightGBM18SingleRowPredictorD2Ev.exit:        ; preds = %_ZNSt10unique_ptrIN8LightGBM9PredictorESt14default_deleteIS1_EED2Ev.exit.i.i, %10
  tail call void @_ZN8LightGBM6ConfigD2Ev(ptr noundef nonnull align 8 dereferenceable(1808) %0) #26
  tail call void @_ZdlPv(ptr noundef nonnull %0) #39
  br label %15

15:                                               ; preds = %_ZN8LightGBM18SingleRowPredictorD2Ev.exit, %1
  ret i32 0
}